; ModuleID = '46/104.c'
source_filename = "46/104.c"
target datalayout = "e-m:e-p270:32:32-p271:32:32-p272:64:64-i64:64-f80:128-n8:16:32:64-S128"
target triple = "x86_64-pc-linux-gnu"

@.str = private unnamed_addr constant [5 x i8] c"%d%d\00", align 1
@.str.1 = private unnamed_addr constant [3 x i8] c"%d\00", align 1
@.str.2 = private unnamed_addr constant [4 x i8] c"%d\0A\00", align 1

; Function Attrs: noinline nounwind uwtable
define dso_local i32 @main() #0 {
  %1 = alloca i32, align 4
  %2 = alloca i32, align 4
  %3 = alloca i32, align 4
  %4 = alloca i32, align 4
  %5 = alloca i32, align 4
  %6 = alloca i32, align 4
  %7 = alloca i32, align 4
  %8 = alloca [100 x [100 x i32]], align 16
  store i32 0, i32* %1, align 4
  store i32 0, i32* %7, align 4
  %9 = call i32 (i8*, ...) @__isoc99_scanf(i8* getelementptr inbounds ([5 x i8], [5 x i8]* @.str, i64 0, i64 0), i32* %2, i32* %3)
  store i32 0, i32* %4, align 4
  br label %10

10:                                               ; preds = %31, %0
  %11 = load i32, i32* %4, align 4
  %12 = load i32, i32* %2, align 4
  %13 = icmp slt i32 %11, %12
  br i1 %13, label %14, label %34

14:                                               ; preds = %10
  store i32 0, i32* %5, align 4
  br label %15

15:                                               ; preds = %27, %14
  %16 = load i32, i32* %5, align 4
  %17 = load i32, i32* %3, align 4
  %18 = icmp slt i32 %16, %17
  br i1 %18, label %19, label %30

19:                                               ; preds = %15
  %20 = load i32, i32* %4, align 4
  %21 = sext i32 %20 to i64
  %22 = getelementptr inbounds [100 x [100 x i32]], [100 x [100 x i32]]* %8, i64 0, i64 %21
  %23 = load i32, i32* %5, align 4
  %24 = sext i32 %23 to i64
  %25 = getelementptr inbounds [100 x i32], [100 x i32]* %22, i64 0, i64 %24
  %26 = call i32 (i8*, ...) @__isoc99_scanf(i8* getelementptr inbounds ([3 x i8], [3 x i8]* @.str.1, i64 0, i64 0), i32* %25)
  br label %27

27:                                               ; preds = %19
  %28 = load i32, i32* %5, align 4
  %29 = add nsw i32 %28, 1
  store i32 %29, i32* %5, align 4
  br label %15

30:                                               ; preds = %15
  br label %31

31:                                               ; preds = %30
  %32 = load i32, i32* %4, align 4
  %33 = add nsw i32 %32, 1
  store i32 %33, i32* %4, align 4
  br label %10

34:                                               ; preds = %10
  store i32 0, i32* %6, align 4
  br label %35

35:                                               ; preds = %189, %34
  %36 = load i32, i32* %6, align 4
  store i32 %36, i32* %4, align 4
  br label %37

37:                                               ; preds = %61, %35
  %38 = load i32, i32* %4, align 4
  %39 = load i32, i32* %3, align 4
  %40 = load i32, i32* %6, align 4
  %41 = sub nsw i32 %39, %40
  %42 = icmp slt i32 %38, %41
  br i1 %42, label %43, label %64

43:                                               ; preds = %37
  %44 = load i32, i32* %6, align 4
  %45 = sext i32 %44 to i64
  %46 = getelementptr inbounds [100 x [100 x i32]], [100 x [100 x i32]]* %8, i64 0, i64 %45
  %47 = load i32, i32* %4, align 4
  %48 = sext i32 %47 to i64
  %49 = getelementptr inbounds [100 x i32], [100 x i32]* %46, i64 0, i64 %48
  %50 = load i32, i32* %49, align 4
  %51 = call i32 (i8*, ...) @printf(i8* getelementptr inbounds ([4 x i8], [4 x i8]* @.str.2, i64 0, i64 0), i32 %50)
  %52 = load i32, i32* %7, align 4
  %53 = add nsw i32 %52, 1
  store i32 %53, i32* %7, align 4
  %54 = load i32, i32* %7, align 4
  %55 = load i32, i32* %2, align 4
  %56 = load i32, i32* %3, align 4
  %57 = mul nsw i32 %55, %56
  %58 = icmp eq i32 %54, %57
  br i1 %58, label %59, label %60

59:                                               ; preds = %43
  br label %64

60:                                               ; preds = %43
  br label %61

61:                                               ; preds = %60
  %62 = load i32, i32* %4, align 4
  %63 = add nsw i32 %62, 1
  store i32 %63, i32* %4, align 4
  br label %37

64:                                               ; preds = %59, %37
  %65 = load i32, i32* %7, align 4
  %66 = load i32, i32* %2, align 4
  %67 = load i32, i32* %3, align 4
  %68 = mul nsw i32 %66, %67
  %69 = icmp eq i32 %65, %68
  br i1 %69, label %70, label %71

70:                                               ; preds = %64
  br label %192

71:                                               ; preds = %64
  %72 = load i32, i32* %6, align 4
  %73 = add nsw i32 %72, 1
  store i32 %73, i32* %5, align 4
  br label %74

74:                                               ; preds = %101, %71
  %75 = load i32, i32* %5, align 4
  %76 = load i32, i32* %2, align 4
  %77 = load i32, i32* %6, align 4
  %78 = sub nsw i32 %76, %77
  %79 = icmp slt i32 %75, %78
  br i1 %79, label %80, label %104

80:                                               ; preds = %74
  %81 = load i32, i32* %5, align 4
  %82 = sext i32 %81 to i64
  %83 = getelementptr inbounds [100 x [100 x i32]], [100 x [100 x i32]]* %8, i64 0, i64 %82
  %84 = load i32, i32* %3, align 4
  %85 = load i32, i32* %6, align 4
  %86 = sub nsw i32 %84, %85
  %87 = sub nsw i32 %86, 1
  %88 = sext i32 %87 to i64
  %89 = getelementptr inbounds [100 x i32], [100 x i32]* %83, i64 0, i64 %88
  %90 = load i32, i32* %89, align 4
  %91 = call i32 (i8*, ...) @printf(i8* getelementptr inbounds ([4 x i8], [4 x i8]* @.str.2, i64 0, i64 0), i32 %90)
  %92 = load i32, i32* %7, align 4
  %93 = add nsw i32 %92, 1
  store i32 %93, i32* %7, align 4
  %94 = load i32, i32* %7, align 4
  %95 = load i32, i32* %2, align 4
  %96 = load i32, i32* %3, align 4
  %97 = mul nsw i32 %95, %96
  %98 = icmp eq i32 %94, %97
  br i1 %98, label %99, label %100

99:                                               ; preds = %80
  br label %104

100:                                              ; preds = %80
  br label %101

101:                                              ; preds = %100
  %102 = load i32, i32* %5, align 4
  %103 = add nsw i32 %102, 1
  store i32 %103, i32* %5, align 4
  br label %74

104:                                              ; preds = %99, %74
  %105 = load i32, i32* %7, align 4
  %106 = load i32, i32* %2, align 4
  %107 = load i32, i32* %3, align 4
  %108 = mul nsw i32 %106, %107
  %109 = icmp eq i32 %105, %108
  br i1 %109, label %110, label %111

110:                                              ; preds = %104
  br label %192

111:                                              ; preds = %104
  %112 = load i32, i32* %3, align 4
  %113 = sub nsw i32 %112, 2
  %114 = load i32, i32* %6, align 4
  %115 = sub nsw i32 %113, %114
  store i32 %115, i32* %4, align 4
  br label %116

116:                                              ; preds = %141, %111
  %117 = load i32, i32* %4, align 4
  %118 = load i32, i32* %6, align 4
  %119 = icmp sge i32 %117, %118
  br i1 %119, label %120, label %144

120:                                              ; preds = %116
  %121 = load i32, i32* %2, align 4
  %122 = load i32, i32* %6, align 4
  %123 = sub nsw i32 %121, %122
  %124 = sub nsw i32 %123, 1
  %125 = sext i32 %124 to i64
  %126 = getelementptr inbounds [100 x [100 x i32]], [100 x [100 x i32]]* %8, i64 0, i64 %125
  %127 = load i32, i32* %4, align 4
  %128 = sext i32 %127 to i64
  %129 = getelementptr inbounds [100 x i32], [100 x i32]* %126, i64 0, i64 %128
  %130 = load i32, i32* %129, align 4
  %131 = call i32 (i8*, ...) @printf(i8* getelementptr inbounds ([4 x i8], [4 x i8]* @.str.2, i64 0, i64 0), i32 %130)
  %132 = load i32, i32* %7, align 4
  %133 = add nsw i32 %132, 1
  store i32 %133, i32* %7, align 4
  %134 = load i32, i32* %7, align 4
  %135 = load i32, i32* %2, align 4
  %136 = load i32, i32* %3, align 4
  %137 = mul nsw i32 %135, %136
  %138 = icmp eq i32 %134, %137
  br i1 %138, label %139, label %140

139:                                              ; preds = %120
  br label %144

140:                                              ; preds = %120
  br label %141

141:                                              ; preds = %140
  %142 = load i32, i32* %4, align 4
  %143 = add nsw i32 %142, -1
  store i32 %143, i32* %4, align 4
  br label %116

144:                                              ; preds = %139, %116
  %145 = load i32, i32* %7, align 4
  %146 = load i32, i32* %2, align 4
  %147 = load i32, i32* %3, align 4
  %148 = mul nsw i32 %146, %147
  %149 = icmp eq i32 %145, %148
  br i1 %149, label %150, label %151

150:                                              ; preds = %144
  br label %192

151:                                              ; preds = %144
  %152 = load i32, i32* %2, align 4
  %153 = sub nsw i32 %152, 2
  %154 = load i32, i32* %6, align 4
  %155 = sub nsw i32 %153, %154
  store i32 %155, i32* %5, align 4
  br label %156

156:                                              ; preds = %178, %151
  %157 = load i32, i32* %5, align 4
  %158 = load i32, i32* %6, align 4
  %159 = icmp sgt i32 %157, %158
  br i1 %159, label %160, label %181

160:                                              ; preds = %156
  %161 = load i32, i32* %5, align 4
  %162 = sext i32 %161 to i64
  %163 = getelementptr inbounds [100 x [100 x i32]], [100 x [100 x i32]]* %8, i64 0, i64 %162
  %164 = load i32, i32* %6, align 4
  %165 = sext i32 %164 to i64
  %166 = getelementptr inbounds [100 x i32], [100 x i32]* %163, i64 0, i64 %165
  %167 = load i32, i32* %166, align 4
  %168 = call i32 (i8*, ...) @printf(i8* getelementptr inbounds ([4 x i8], [4 x i8]* @.str.2, i64 0, i64 0), i32 %167)
  %169 = load i32, i32* %7, align 4
  %170 = add nsw i32 %169, 1
  store i32 %170, i32* %7, align 4
  %171 = load i32, i32* %7, align 4
  %172 = load i32, i32* %2, align 4
  %173 = load i32, i32* %3, align 4
  %174 = mul nsw i32 %172, %173
  %175 = icmp eq i32 %171, %174
  br i1 %175, label %176, label %177

176:                                              ; preds = %160
  br label %181

177:                                              ; preds = %160
  br label %178

178:                                              ; preds = %177
  %179 = load i32, i32* %5, align 4
  %180 = add nsw i32 %179, -1
  store i32 %180, i32* %5, align 4
  br label %156

181:                                              ; preds = %176, %156
  %182 = load i32, i32* %7, align 4
  %183 = load i32, i32* %2, align 4
  %184 = load i32, i32* %3, align 4
  %185 = mul nsw i32 %183, %184
  %186 = icmp eq i32 %182, %185
  br i1 %186, label %187, label %188

187:                                              ; preds = %181
  br label %192

188:                                              ; preds = %181
  br label %189

189:                                              ; preds = %188
  %190 = load i32, i32* %6, align 4
  %191 = add nsw i32 %190, 1
  store i32 %191, i32* %6, align 4
  br label %35

192:                                              ; preds = %187, %150, %110, %70
  ret i32 0
}

declare dso_local i32 @__isoc99_scanf(i8*, ...) #1

declare dso_local i32 @printf(i8*, ...) #1


!llvm.module.flags = !{!0}
!llvm.ident = !{!1}

!0 = !{i32 1, !"wchar_size", i32 4}
!1 = !{!"clang version 10.0.0-4ubuntu1 "}
